target datalayout = "e-m:e-p270:32:32-p271:32:32-p272:64:64-i64:64-i128:128-f80:128-n8:16:32:64-S128"
target triple = "x86_64-pc-linux-gnu"

%"class.absl::log_internal::Voidify" = type { i8 }
%"class.absl::log_internal::LogMessage" = type { %"class.absl::base_internal::ErrnoSaver", %"class.std::unique_ptr.46" }
%"class.absl::base_internal::ErrnoSaver" = type { i32 }
%"class.std::unique_ptr.46" = type { %"struct.std::__uniq_ptr_data.47" }
%"struct.std::__uniq_ptr_data.47" = type { %"class.std::__uniq_ptr_impl.48" }
%"class.std::__uniq_ptr_impl.48" = type { %"class.std::tuple.49" }
%"class.std::tuple.49" = type { %"struct.std::_Tuple_impl.50" }
%"struct.std::_Tuple_impl.50" = type { %"struct.std::_Head_base.53" }
%"struct.std::_Head_base.53" = type { ptr }
%"class.std::basic_string_view" = type { i64, ptr }

@.str.4 = private unnamed_addr constant [125 x i8] c"generated/home/dtcxzyw/WorkSpace/Projects/compilers/llvm-opt-benchmark/bench/abseil-cpp/abseil-cpp/absl/log/log_sink_test.cc\00", align 1

; Function Attrs: mustprogress nounwind uwtable
define linkonce_odr dso_local void @_ZNKO4absl12log_internal7VoidifyaaINS0_10LogMessageEEEvRKT_(ptr noundef nonnull align 1 dereferenceable(1) %0, ptr noundef nonnull align 8 dereferenceable(16) %1) #8 comdat align 2 {
  %3 = alloca ptr, align 8
  %4 = alloca ptr, align 8
  store ptr %0, ptr %3, align 8, !tbaa !125
  store ptr %1, ptr %4, align 8, !tbaa !127
  ret void
}

; Function Attrs: mustprogress nounwind uwtable
define linkonce_odr dso_local noundef nonnull align 8 dereferenceable(16) ptr @_ZN4absl12log_internal10LogMessage14InternalStreamEv(ptr noundef nonnull align 8 dereferenceable(16) %0) #8 comdat align 2 {
  %2 = alloca ptr, align 8
  store ptr %0, ptr %2, align 8, !tbaa !127
  %3 = load ptr, ptr %2, align 8
  ret ptr %3
}

; Function Attrs: mustprogress nounwind uwtable
define linkonce_odr dso_local noundef i32 @_ZN4absl20NormalizeLogSeverityENS_11LogSeverityE(i32 noundef %0) #8 comdat {
  %2 = alloca i32, align 4
  %3 = alloca i32, align 4
  store i32 %0, ptr %2, align 4, !tbaa !123
  call void @llvm.lifetime.start.p0(i64 4, ptr %3) #3
  %4 = load i32, ptr %2, align 4, !tbaa !123
  store i32 %4, ptr %3, align 4, !tbaa !123
  %5 = load i32, ptr %3, align 4, !tbaa !123
  %6 = icmp slt i32 %5, 0
  br i1 %6, label %7, label %8

7:                                                ; preds = %1
  store i32 0, ptr %3, align 4, !tbaa !123
  br label %8

8:                                                ; preds = %7, %1
  %9 = load i32, ptr %3, align 4, !tbaa !123
  %10 = icmp sgt i32 %9, 3
  br i1 %10, label %11, label %12

11:                                               ; preds = %8
  store i32 2, ptr %3, align 4, !tbaa !123
  br label %12

12:                                               ; preds = %11, %8
  %13 = load i32, ptr %3, align 4, !tbaa !123
  call void @llvm.lifetime.end.p0(i64 4, ptr %3) #3
  ret i32 %13
}

; Function Attrs: mustprogress uwtable
define internal { i64, ptr } @_ZN12_GLOBAL__N_114ReentrancyTest12LogAndReturnEN4absl11LogSeverityESt17basic_string_viewIcSt11char_traitsIcEES6_(i32 noundef %0, i64 %1, ptr %2, i64 %3, ptr %4) #9 align 2 personality ptr @__gxx_personality_v0 {
  %6 = alloca %"class.std::basic_string_view", align 8
  %7 = alloca %"class.std::basic_string_view", align 8
  %8 = alloca %"class.std::basic_string_view", align 8
  %9 = alloca i32, align 4
  %10 = alloca i32, align 4
  %11 = alloca i32, align 4
  %12 = alloca i32, align 4
  %13 = alloca %"class.absl::log_internal::Voidify", align 1
  %14 = alloca %"class.absl::log_internal::LogMessage", align 8
  %15 = alloca %"class.std::basic_string_view", align 8
  %16 = alloca ptr, align 8
  %17 = alloca i32, align 4
  %18 = getelementptr inbounds nuw { i64, ptr }, ptr %7, i32 0, i32 0
  store i64 %1, ptr %18, align 8
  %19 = getelementptr inbounds nuw { i64, ptr }, ptr %7, i32 0, i32 1
  store ptr %2, ptr %19, align 8
  %20 = getelementptr inbounds nuw { i64, ptr }, ptr %8, i32 0, i32 0
  store i64 %3, ptr %20, align 8
  %21 = getelementptr inbounds nuw { i64, ptr }, ptr %8, i32 0, i32 1
  store ptr %4, ptr %21, align 8
  store i32 %0, ptr %9, align 4, !tbaa !123
  call void @llvm.lifetime.start.p0(i64 4, ptr %10) #3
  store i32 1, ptr %10, align 4, !tbaa !23
  br label %22

22:                                               ; preds = %48, %5
  %23 = load i32, ptr %10, align 4, !tbaa !23
  %24 = icmp ne i32 %23, 0
  br i1 %24, label %26, label %25

25:                                               ; preds = %22
  store i32 2, ptr %11, align 4
  call void @llvm.lifetime.end.p0(i64 4, ptr %10) #3
  br label %49

26:                                               ; preds = %22
  call void @llvm.lifetime.start.p0(i64 4, ptr %12) #3
  %27 = load i32, ptr %9, align 4, !tbaa !123
  %28 = call noundef i32 @_ZN4absl20NormalizeLogSeverityENS_11LogSeverityE(i32 noundef %27)
  store i32 %28, ptr %12, align 4, !tbaa !123
  br label %29

29:                                               ; preds = %42, %26
  %30 = load i32, ptr %10, align 4, !tbaa !23
  %31 = icmp ne i32 %30, 0
  br i1 %31, label %33, label %32

32:                                               ; preds = %29
  store i32 5, ptr %11, align 4
  call void @llvm.lifetime.end.p0(i64 4, ptr %12) #3
  br label %47

33:                                               ; preds = %29
  call void @llvm.lifetime.start.p0(i64 1, ptr %13) #3
  call void @llvm.lifetime.start.p0(i64 16, ptr %14) #3
  %34 = load i32, ptr %12, align 4, !tbaa !123
  call void @_ZN4absl12log_internal10LogMessageC1EPKciNS_11LogSeverityE(ptr noundef nonnull align 8 dereferenceable(16) %14, ptr noundef @.str.4, i32 noundef 220, i32 noundef %34) #29
  %35 = call noundef nonnull align 8 dereferenceable(16) ptr @_ZN4absl12log_internal10LogMessage14InternalStreamEv(ptr noundef nonnull align 8 dereferenceable(16) %14)
  call void @llvm.memcpy.p0.p0.i64(ptr align 8 %15, ptr align 8 %7, i64 16, i1 false), !tbaa.struct !571
  %36 = getelementptr inbounds nuw { i64, ptr }, ptr %15, i32 0, i32 0
  %37 = load i64, ptr %36, align 8
  %38 = getelementptr inbounds nuw { i64, ptr }, ptr %15, i32 0, i32 1
  %39 = load ptr, ptr %38, align 8
  %40 = invoke noundef nonnull align 8 dereferenceable(16) ptr @_ZN4absl12log_internal10LogMessagelsESt17basic_string_viewIcSt11char_traitsIcEE(ptr noundef nonnull align 8 dereferenceable(16) %35, i64 %37, ptr %39)
          to label %41 unwind label %43

41:                                               ; preds = %33
  call void @_ZNKO4absl12log_internal7VoidifyaaINS0_10LogMessageEEEvRKT_(ptr noundef nonnull align 1 dereferenceable(1) %13, ptr noundef nonnull align 8 dereferenceable(16) %40)
  call void @_ZN4absl12log_internal10LogMessageD1Ev(ptr noundef nonnull align 8 dereferenceable(16) %14) #30
  call void @llvm.lifetime.end.p0(i64 16, ptr %14) #3
  call void @llvm.lifetime.end.p0(i64 1, ptr %13) #3
  br label %42

42:                                               ; preds = %41
  store i32 0, ptr %10, align 4, !tbaa !23
  br label %29, !llvm.loop !572

43:                                               ; preds = %33
  %44 = landingpad { ptr, i32 }
          cleanup
  %45 = extractvalue { ptr, i32 } %44, 0
  store ptr %45, ptr %16, align 8
  %46 = extractvalue { ptr, i32 } %44, 1
  store i32 %46, ptr %17, align 4
  call void @_ZN4absl12log_internal10LogMessageD1Ev(ptr noundef nonnull align 8 dereferenceable(16) %14) #30
  call void @llvm.lifetime.end.p0(i64 16, ptr %14) #3
  call void @llvm.lifetime.end.p0(i64 1, ptr %13) #3
  call void @llvm.lifetime.end.p0(i64 4, ptr %12) #3
  call void @llvm.lifetime.end.p0(i64 4, ptr %10) #3
  br label %51

47:                                               ; preds = %32
  br label %48

48:                                               ; preds = %47
  store i32 0, ptr %10, align 4, !tbaa !23
  br label %22, !llvm.loop !573

49:                                               ; preds = %25
  call void @llvm.memcpy.p0.p0.i64(ptr align 8 %6, ptr align 8 %8, i64 16, i1 false), !tbaa.struct !571
  %50 = load { i64, ptr }, ptr %6, align 8
  ret { i64, ptr } %50

51:                                               ; preds = %43
  %52 = load ptr, ptr %16, align 8
  %53 = load i32, ptr %17, align 4
  %54 = insertvalue { ptr, i32 } poison, ptr %52, 0
  %55 = insertvalue { ptr, i32 } %54, i32 %53, 1
  resume { ptr, i32 } %55
}