; Function Attrs: cold mustprogress uwtable
define internal fastcc { i64, ptr } @_ZN12_GLOBAL__N_114ReentrancyTest12LogAndReturnEN4absl11LogSeverityESt17basic_string_viewIcSt11char_traitsIcEES6_(i32 noundef range(i32 0, 4) %0, i64 %1, ptr %2, i64 %3, ptr %4) unnamed_addr #23 align 2 personality ptr @__gxx_personality_v0 {
.critedge:
  %5 = alloca %"class.absl::log_internal::LogMessage", align 8
  call void @llvm.lifetime.start.p0(i64 16, ptr nonnull %5) #29
  call void @_ZN4absl12log_internal10LogMessageC1EPKciNS_11LogSeverityE(ptr noundef nonnull align 8 dereferenceable(16) %5, ptr noundef nonnull @.str.4, i32 noundef 220, i32 noundef %0) #33
  %6 = invoke noundef nonnull align 8 dereferenceable(16) ptr @_ZN4absl12log_internal10LogMessagelsESt17basic_string_viewIcSt11char_traitsIcEE(ptr noundef nonnull align 8 dereferenceable(16) %5, i64 %1, ptr %2)
          to label %7 unwind label %8

7:                                                ; preds = %.critedge
  call void @_ZN4absl12log_internal10LogMessageD1Ev(ptr noundef nonnull align 8 dereferenceable(16) %5) #34
  call void @llvm.lifetime.end.p0(i64 16, ptr nonnull %5) #29
  %.fca.0.insert = insertvalue { i64, ptr } poison, i64 %3, 0
  %.fca.1.insert = insertvalue { i64, ptr } %.fca.0.insert, ptr %4, 1
  ret { i64, ptr } %.fca.1.insert

8:                                                ; preds = %.critedge
  %9 = landingpad { ptr, i32 }
          cleanup
  call void @_ZN4absl12log_internal10LogMessageD1Ev(ptr noundef nonnull align 8 dereferenceable(16) %5) #34
  call void @llvm.lifetime.end.p0(i64 16, ptr nonnull %5) #29
  resume { ptr, i32 } %9
}